; Function Attrs: nounwind uwtable
define ptr @l_Lake_Reservoir_pkgApiUrl(ptr noundef readonly captures(none) %0, ptr noundef %1, ptr noundef %2) local_unnamed_addr #1 {
  %4 = getelementptr inbounds nuw i8, ptr %0, i64 32
  %5 = load ptr, ptr %4, align 8, !tbaa !10
  %6 = load ptr, ptr @l_Lake_instInhabitedRegistrySrc___closed__1, align 8, !tbaa !10
  %7 = tail call ptr @lean_string_append(ptr noundef %6, ptr noundef %5) #7
  %8 = load ptr, ptr @l_Lake_Reservoir_pkgApiUrl___closed__1, align 8, !tbaa !10
  %9 = tail call ptr @lean_string_append(ptr noundef %7, ptr noundef %8) #7
  %10 = getelementptr i8, ptr %1, i64 8
  %.val.i = load i64, ptr %10, align 8, !tbaa !12
  %11 = shl i64 %.val.i, 1
  %12 = add i64 %11, -1
  %13 = inttoptr i64 %12 to ptr
  %14 = load ptr, ptr @l_Lake_instInhabitedRegistrySrc___closed__1, align 8, !tbaa !10
  %15 = tail call ptr @l_String_foldlAux___at_Lake_uriEncode___spec__1(ptr noundef %1, ptr noundef nonnull %13, ptr noundef nonnull inttoptr (i64 1 to ptr), ptr noundef %14)
  %16 = tail call ptr @lean_string_append(ptr noundef %9, ptr noundef %15) #7
  %17 = ptrtoint ptr %15 to i64
  %18 = and i64 %17, 1
  %.not = icmp eq i64 %18, 0
  br i1 %.not, label %19, label %lean_dec.exit18

19:                                               ; preds = %3
  %20 = load i32, ptr %15, align 4, !tbaa !4
  %21 = icmp sgt i32 %20, 1
  br i1 %21, label %22, label %24, !prof !9

22:                                               ; preds = %19
  %23 = add nsw i32 %20, -1
  store i32 %23, ptr %15, align 4, !tbaa !4
  br label %lean_dec.exit18

24:                                               ; preds = %19
  %.not.i = icmp eq i32 %20, 0
  br i1 %.not.i, label %lean_dec.exit18, label %25

25:                                               ; preds = %24
  tail call void @lean_dec_ref_cold(ptr noundef nonnull %15) #7
  br label %lean_dec.exit18

lean_dec.exit18:                                  ; preds = %25, %24, %22, %3
  %26 = load ptr, ptr @l_Lake_Reservoir_pkgApiUrl___closed__2, align 8, !tbaa !10
  %27 = tail call ptr @lean_string_append(ptr noundef %16, ptr noundef %26) #7
  %28 = getelementptr i8, ptr %2, i64 8
  %.val.i21 = load i64, ptr %28, align 8, !tbaa !12
  %29 = shl i64 %.val.i21, 1
  %30 = add i64 %29, -1
  %31 = inttoptr i64 %30 to ptr
  %32 = load ptr, ptr @l_Lake_instInhabitedRegistrySrc___closed__1, align 8, !tbaa !10
  %33 = tail call ptr @l_String_foldlAux___at_Lake_uriEncode___spec__1(ptr noundef %2, ptr noundef nonnull %31, ptr noundef nonnull inttoptr (i64 1 to ptr), ptr noundef %32)
  %34 = tail call ptr @lean_string_append(ptr noundef %27, ptr noundef %33) #7
  %35 = ptrtoint ptr %33 to i64
  %36 = and i64 %35, 1
  %.not22 = icmp eq i64 %36, 0
  br i1 %.not22, label %37, label %lean_dec.exit

37:                                               ; preds = %lean_dec.exit18
  %38 = load i32, ptr %33, align 4, !tbaa !4
  %39 = icmp sgt i32 %38, 1
  br i1 %39, label %40, label %42, !prof !9

40:                                               ; preds = %37
  %41 = add nsw i32 %38, -1
  store i32 %41, ptr %33, align 4, !tbaa !4
  br label %lean_dec.exit

42:                                               ; preds = %37
  %.not.i19 = icmp eq i32 %38, 0
  br i1 %.not.i19, label %lean_dec.exit, label %43

43:                                               ; preds = %42
  tail call void @lean_dec_ref_cold(ptr noundef nonnull %33) #7
  br label %lean_dec.exit

lean_dec.exit:                                    ; preds = %43, %42, %40, %lean_dec.exit18
  %44 = tail call ptr @lean_string_append(ptr noundef %34, ptr noundef %6) #7
  ret ptr %44
}